target datalayout = "e-m:e-p270:32:32-p271:32:32-p272:64:64-i64:64-i128:128-f80:128-n8:16:32:64-S128"
target triple = "x86_64-pc-linux-gnu"

%"class.icu_77::UObject" = type { ptr }
%"class.icu_77::Calendar" = type <{ %"class.icu_77::UObject", [24 x i32], [24 x i8], i8, [7 x i8], double, ptr, i8, i16, i8, i32, i32, i32, i8, i8, i16, [4 x i8], ptr, ptr }>

; Function Attrs: inlinehint mustprogress nounwind uwtable
define internal noundef signext i8 @_ZL9U_FAILURE10UErrorCode(i32 noundef %0) #2 {
  %2 = alloca i32, align 4
  store i32 %0, ptr %2, align 4, !tbaa !15
  %3 = load i32, ptr %2, align 4, !tbaa !15
  %4 = icmp sgt i32 %3, 0
  %5 = zext i1 %4 to i8
  ret i8 %5
}

; Function Attrs: mustprogress uwtable
define noundef i32 @_ZNK6icu_778Calendar20getWeekendTransitionE19UCalendarDaysOfWeekR10UErrorCode(ptr noundef nonnull align 8 dereferenceable(192) %0, i32 noundef %1, ptr noundef nonnull align 4 dereferenceable(4) %2) unnamed_addr #1 align 2 {
  %4 = alloca i32, align 4
  %5 = alloca ptr, align 8
  %6 = alloca i32, align 4
  %7 = alloca ptr, align 8
  store ptr %0, ptr %5, align 8, !tbaa !37
  store i32 %1, ptr %6, align 4, !tbaa !92
  store ptr %2, ptr %7, align 8, !tbaa !22
  %8 = load ptr, ptr %5, align 8
  %9 = load ptr, ptr %7, align 8, !tbaa !22
  %10 = load i32, ptr %9, align 4, !tbaa !15
  %11 = call noundef signext i8 @_ZL9U_FAILURE10UErrorCode(i32 noundef %10)
  %12 = icmp ne i8 %11, 0
  br i1 %12, label %13, label %14

13:                                               ; preds = %3
  store i32 0, ptr %4, align 4
  br label %39

14:                                               ; preds = %3
  %15 = load i32, ptr %6, align 4, !tbaa !92
  %16 = getelementptr inbounds nuw %"class.icu_77::Calendar", ptr %8, i32 0, i32 8
  %17 = load i16, ptr %16, align 1
  %18 = lshr i16 %17, 7
  %19 = and i16 %18, 15
  %20 = zext i16 %19 to i32
  %21 = icmp eq i32 %15, %20
  br i1 %21, label %22, label %25

22:                                               ; preds = %14
  %23 = getelementptr inbounds nuw %"class.icu_77::Calendar", ptr %8, i32 0, i32 10
  %24 = load i32, ptr %23, align 4, !tbaa !68
  store i32 %24, ptr %4, align 4
  br label %39

25:                                               ; preds = %14
  %26 = load i32, ptr %6, align 4, !tbaa !92
  %27 = getelementptr inbounds nuw %"class.icu_77::Calendar", ptr %8, i32 0, i32 8
  %28 = load i16, ptr %27, align 1
  %29 = lshr i16 %28, 11
  %30 = and i16 %29, 15
  %31 = zext i16 %30 to i32
  %32 = icmp eq i32 %26, %31
  br i1 %32, label %33, label %36

33:                                               ; preds = %25
  %34 = getelementptr inbounds nuw %"class.icu_77::Calendar", ptr %8, i32 0, i32 11
  %35 = load i32, ptr %34, align 8, !tbaa !69
  store i32 %35, ptr %4, align 4
  br label %39

36:                                               ; preds = %25
  br label %37

37:                                               ; preds = %36
  %38 = load ptr, ptr %7, align 8, !tbaa !22
  store i32 1, ptr %38, align 4, !tbaa !15
  store i32 0, ptr %4, align 4
  br label %39

39:                                               ; preds = %37, %33, %22, %13
  %40 = load i32, ptr %4, align 4
  ret i32 %40
}