; Function Attrs: mustprogress nofree norecurse nosync nounwind willreturn memory(argmem: readwrite) uwtable
define noundef i32 @_ZNK6icu_778Calendar20getWeekendTransitionE19UCalendarDaysOfWeekR10UErrorCode(ptr noundef nonnull readonly align 8 captures(none) dereferenceable(192) %0, i32 noundef %1, ptr noundef nonnull align 4 captures(none) dereferenceable(4) %2) unnamed_addr #12 align 2 {
  %4 = load i32, ptr %2, align 4, !tbaa !13
  %5 = icmp slt i32 %4, 1
  br i1 %5, label %6, label %25

6:                                                ; preds = %3
  %7 = getelementptr inbounds nuw i8, ptr %0, i64 153
  %8 = load i16, ptr %7, align 1
  %9 = lshr i16 %8, 7
  %10 = and i16 %9, 15
  %11 = zext nneg i16 %10 to i32
  %12 = icmp eq i32 %1, %11
  br i1 %12, label %13, label %16

13:                                               ; preds = %6
  %14 = getelementptr inbounds nuw i8, ptr %0, i64 156
  %15 = load i32, ptr %14, align 4, !tbaa !42
  br label %25

16:                                               ; preds = %6
  %17 = lshr i16 %8, 11
  %18 = and i16 %17, 15
  %19 = zext nneg i16 %18 to i32
  %20 = icmp eq i32 %1, %19
  br i1 %20, label %21, label %24

21:                                               ; preds = %16
  %22 = getelementptr inbounds nuw i8, ptr %0, i64 160
  %23 = load i32, ptr %22, align 8, !tbaa !43
  br label %25

24:                                               ; preds = %16
  store i32 1, ptr %2, align 4, !tbaa !13
  br label %25

25:                                               ; preds = %3, %24, %21, %13
  %.0 = phi i32 [ %15, %13 ], [ %23, %21 ], [ 0, %24 ], [ 0, %3 ]
  ret i32 %.0
}